target datalayout = "e-m:e-p270:32:32-p271:32:32-p272:64:64-i64:64-i128:128-f80:128-n8:16:32:64-S128"
target triple = "x86_64-pc-linux-gnu"

%struct.ResampleContext = type { ptr, ptr, i32, i32, i32, i32, i32, i32, i32, i32, i32, i32, i32, i32, i32, double, double, i32, i32, i32, i32, %struct.anon }
%struct.anon = type { ptr, ptr, ptr }
%struct.AudioData = type { [64 x ptr], ptr, i32, i32, i32, i32, i32 }
%struct.SwrContext = type { ptr, i32, ptr, i32, i32, i32, %struct.AVChannelLayout, %struct.AVChannelLayout, %struct.AVChannelLayout, i32, i32, i32, float, float, float, float, float, i32, ptr, i32, %struct.AVChannelLayout, %struct.AVChannelLayout, %struct.AVChannelLayout, i32, i32, %struct.DitherContext, i32, i32, i32, i32, double, i32, double, double, i32, float, float, float, float, float, i64, i32, i32, i32, %struct.AudioData, %struct.AudioData, %struct.AudioData, %struct.AudioData, %struct.AudioData, %struct.AudioData, %struct.AudioData, %struct.AudioData, i32, i32, i32, i32, i64, i64, i32, double, ptr, ptr, ptr, ptr, ptr, [64 x [64 x double]], [64 x [64 x float]], ptr, ptr, ptr, ptr, [64 x [64 x i32]], [64 x [65 x i8]], ptr, ptr, ptr, ptr, ptr }
%struct.AVChannelLayout = type { i32, i32, %union.anon, ptr }
%union.anon = type { i64 }
%struct.DitherContext = type { i32, i32, float, float, i32, float, float, i32, [20 x float], [64 x [40 x float]], %struct.AudioData, %struct.AudioData, i32 }

; Function Attrs: nounwind uwtable
define internal i64 @get_out_samples(ptr noundef %0, i32 noundef %1) #0 {
  %3 = alloca i64, align 8
  %4 = alloca ptr, align 8
  %5 = alloca i32, align 4
  %6 = alloca ptr, align 8
  %7 = alloca i64, align 8
  %8 = alloca i32, align 4
  store ptr %0, ptr %4, align 8, !tbaa !57
  store i32 %1, ptr %5, align 4, !tbaa !9
  call void @llvm.lifetime.start.p0(i64 8, ptr %6) #8
  %9 = load ptr, ptr %4, align 8, !tbaa !57
  %10 = getelementptr inbounds nuw %struct.SwrContext, ptr %9, i32 0, i32 63
  %11 = load ptr, ptr %10, align 8, !tbaa !59
  store ptr %11, ptr %6, align 8, !tbaa !4
  call void @llvm.lifetime.start.p0(i64 8, ptr %7) #8
  %12 = load ptr, ptr %4, align 8, !tbaa !57
  %13 = getelementptr inbounds nuw %struct.SwrContext, ptr %12, i32 0, i32 53
  %14 = load i32, ptr %13, align 4, !tbaa !66
  %15 = sext i32 %14 to i64
  %16 = add nsw i64 %15, 2
  %17 = load i32, ptr %5, align 4, !tbaa !9
  %18 = sext i32 %17 to i64
  %19 = add nsw i64 %16, %18
  store i64 %19, ptr %7, align 8, !tbaa !46
  %20 = load ptr, ptr %6, align 8, !tbaa !4
  %21 = getelementptr inbounds nuw %struct.ResampleContext, ptr %20, i32 0, i32 12
  %22 = load i32, ptr %21, align 8, !tbaa !13
  %23 = sext i32 %22 to i64
  %24 = load i64, ptr %7, align 8, !tbaa !46
  %25 = mul nsw i64 %24, %23
  store i64 %25, ptr %7, align 8, !tbaa !46
  %26 = load ptr, ptr %6, align 8, !tbaa !4
  %27 = getelementptr inbounds nuw %struct.ResampleContext, ptr %26, i32 0, i32 8
  %28 = load i32, ptr %27, align 8, !tbaa !37
  %29 = sext i32 %28 to i64
  %30 = load i64, ptr %7, align 8, !tbaa !46
  %31 = sub nsw i64 %30, %29
  store i64 %31, ptr %7, align 8, !tbaa !46
  %32 = load i64, ptr %7, align 8, !tbaa !46
  %33 = load ptr, ptr %4, align 8, !tbaa !57
  %34 = getelementptr inbounds nuw %struct.SwrContext, ptr %33, i32 0, i32 10
  %35 = load i32, ptr %34, align 4, !tbaa !78
  %36 = sext i32 %35 to i64
  %37 = load ptr, ptr %4, align 8, !tbaa !57
  %38 = getelementptr inbounds nuw %struct.SwrContext, ptr %37, i32 0, i32 9
  %39 = load i32, ptr %38, align 8, !tbaa !72
  %40 = sext i32 %39 to i64
  %41 = load ptr, ptr %6, align 8, !tbaa !4
  %42 = getelementptr inbounds nuw %struct.ResampleContext, ptr %41, i32 0, i32 12
  %43 = load i32, ptr %42, align 8, !tbaa !13
  %44 = sext i32 %43 to i64
  %45 = mul nsw i64 %40, %44
  %46 = call i64 @av_rescale_rnd(i64 noundef %32, i64 noundef %36, i64 noundef %45, i32 noundef 3) #10
  %47 = add nsw i64 %46, 2
  store i64 %47, ptr %7, align 8, !tbaa !46
  %48 = load ptr, ptr %6, align 8, !tbaa !4
  %49 = getelementptr inbounds nuw %struct.ResampleContext, ptr %48, i32 0, i32 11
  %50 = load i32, ptr %49, align 4, !tbaa !29
  %51 = icmp ne i32 %50, 0
  br i1 %51, label %52, label %90

52:                                               ; preds = %2
  %53 = load i64, ptr %7, align 8, !tbaa !46
  %54 = icmp sgt i64 %53, 2147483647
  br i1 %54, label %55, label %56

55:                                               ; preds = %52
  store i64 -22, ptr %3, align 8
  store i32 1, ptr %8, align 4
  br label %92

56:                                               ; preds = %52
  %57 = load i64, ptr %7, align 8, !tbaa !46
  %58 = load i64, ptr %7, align 8, !tbaa !46
  %59 = load ptr, ptr %6, align 8, !tbaa !4
  %60 = getelementptr inbounds nuw %struct.ResampleContext, ptr %59, i32 0, i32 4
  %61 = load i32, ptr %60, align 8, !tbaa !34
  %62 = sext i32 %61 to i64
  %63 = mul nsw i64 %58, %62
  %64 = sub nsw i64 %63, 1
  %65 = load ptr, ptr %6, align 8, !tbaa !4
  %66 = getelementptr inbounds nuw %struct.ResampleContext, ptr %65, i32 0, i32 5
  %67 = load i32, ptr %66, align 4, !tbaa !30
  %68 = sext i32 %67 to i64
  %69 = sdiv i64 %64, %68
  %70 = add nsw i64 %69, 1
  %71 = icmp sgt i64 %57, %70
  br i1 %71, label %72, label %74

72:                                               ; preds = %56
  %73 = load i64, ptr %7, align 8, !tbaa !46
  br label %88

74:                                               ; preds = %56
  %75 = load i64, ptr %7, align 8, !tbaa !46
  %76 = load ptr, ptr %6, align 8, !tbaa !4
  %77 = getelementptr inbounds nuw %struct.ResampleContext, ptr %76, i32 0, i32 4
  %78 = load i32, ptr %77, align 8, !tbaa !34
  %79 = sext i32 %78 to i64
  %80 = mul nsw i64 %75, %79
  %81 = sub nsw i64 %80, 1
  %82 = load ptr, ptr %6, align 8, !tbaa !4
  %83 = getelementptr inbounds nuw %struct.ResampleContext, ptr %82, i32 0, i32 5
  %84 = load i32, ptr %83, align 4, !tbaa !30
  %85 = sext i32 %84 to i64
  %86 = sdiv i64 %81, %85
  %87 = add nsw i64 %86, 1
  br label %88

88:                                               ; preds = %74, %72
  %89 = phi i64 [ %73, %72 ], [ %87, %74 ]
  store i64 %89, ptr %7, align 8, !tbaa !46
  br label %90

90:                                               ; preds = %88, %2
  %91 = load i64, ptr %7, align 8, !tbaa !46
  store i64 %91, ptr %3, align 8
  store i32 1, ptr %8, align 4
  br label %92

92:                                               ; preds = %90, %55
  call void @llvm.lifetime.end.p0(i64 8, ptr %7) #8
  call void @llvm.lifetime.end.p0(i64 8, ptr %6) #8
  %93 = load i64, ptr %3, align 8
  ret i64 %93
}