; Function Attrs: mustprogress nofree nosync nounwind willreturn memory(read, inaccessiblemem: none) uwtable
define internal range(i64 -9223372036854775806, -9223372036854775808) i64 @get_out_samples(ptr noundef readonly captures(none) %0, i32 noundef %1) #1 {
  %3 = getelementptr inbounds nuw i8, ptr %0, i64 16216
  %4 = load ptr, ptr %3, align 8, !tbaa !45
  %5 = getelementptr inbounds nuw i8, ptr %0, i64 16148
  %6 = load i32, ptr %5, align 4, !tbaa !54
  %7 = sext i32 %6 to i64
  %8 = sext i32 %1 to i64
  %9 = add nsw i64 %8, 2
  %10 = add nsw i64 %9, %7
  %11 = getelementptr inbounds nuw i8, ptr %4, i64 56
  %12 = load i32, ptr %11, align 8, !tbaa !11
  %13 = sext i32 %12 to i64
  %14 = mul nsw i64 %10, %13
  %15 = getelementptr inbounds nuw i8, ptr %4, i64 40
  %16 = load i32, ptr %15, align 8, !tbaa !36
  %17 = sext i32 %16 to i64
  %18 = sub nsw i64 %14, %17
  %19 = getelementptr inbounds nuw i8, ptr %0, i64 116
  %20 = load i32, ptr %19, align 4, !tbaa !68
  %21 = sext i32 %20 to i64
  %22 = getelementptr inbounds nuw i8, ptr %0, i64 112
  %23 = load i32, ptr %22, align 8, !tbaa !61
  %24 = sext i32 %23 to i64
  %25 = mul nsw i64 %24, %13
  %26 = tail call i64 @av_rescale_rnd(i64 noundef %18, i64 noundef %21, i64 noundef %25, i32 noundef 3) #11
  %27 = add nsw i64 %26, 2
  %28 = getelementptr inbounds nuw i8, ptr %4, i64 52
  %29 = load i32, ptr %28, align 4, !tbaa !28
  %.not = icmp eq i32 %29, 0
  br i1 %.not, label %43, label %30

30:                                               ; preds = %2
  %31 = icmp sgt i64 %26, 2147483645
  br i1 %31, label %43, label %32

32:                                               ; preds = %30
  %33 = getelementptr inbounds nuw i8, ptr %4, i64 24
  %34 = load i32, ptr %33, align 8, !tbaa !33
  %35 = sext i32 %34 to i64
  %36 = mul nsw i64 %27, %35
  %37 = add nsw i64 %36, -1
  %38 = getelementptr inbounds nuw i8, ptr %4, i64 28
  %39 = load i32, ptr %38, align 4, !tbaa !29
  %40 = sext i32 %39 to i64
  %41 = sdiv i64 %37, %40
  %42 = add nsw i64 %41, 1
  %. = tail call i64 @llvm.smax.i64(i64 %27, i64 %42)
  br label %43

43:                                               ; preds = %2, %32, %30
  %.022 = phi i64 [ -22, %30 ], [ %., %32 ], [ %27, %2 ]
  ret i64 %.022
}